; ModuleID = 'bench/openjdk/original/openbsd-reallocarray.ll'
source_filename = "bench/openjdk/original/openbsd-reallocarray.ll"
target datalayout = "e-m:e-p270:32:32-p271:32:32-p272:64:64-i64:64-i128:128-f80:128-n8:16:32:64-S128"
target triple = "x86_64-pc-linux-gnu"

; Function Attrs: mustprogress nounwind willreturn memory(write, argmem: readwrite, inaccessiblemem: readwrite) uwtable
define hidden noalias noundef ptr @openbsd_reallocarray(ptr nocapture noundef %0, i64 noundef %1, i64 noundef %2) local_unnamed_addr #0 {
  %4 = or i64 %2, %1
  %or.cond = icmp ugt i64 %4, 4294967295
  %5 = icmp ne i64 %1, 0
  %or.cond3 = and i1 %5, %or.cond
  br i1 %or.cond3, label %6, label %9

6:                                                ; preds = %3
  %mul = tail call { i64, i1 } @llvm.umul.with.overflow.i64(i64 %1, i64 %2)
  %mul.ov = extractvalue { i64, i1 } %mul, 1
  br i1 %mul.ov, label %7, label %9

7:                                                ; preds = %6
  %8 = tail call ptr @__errno_location() #4
  store i32 12, ptr %8, align 4
  br label %15

9:                                                ; preds = %3, %6
  %10 = icmp eq i64 %2, 0
  %11 = icmp eq i64 %1, 0
  %or.cond5 = or i1 %11, %10
  br i1 %or.cond5, label %15, label %12

12:                                               ; preds = %9
  %13 = mul i64 %2, %1
  %14 = tail call ptr @realloc(ptr noundef %0, i64 noundef %13) #5
  br label %15

15:                                               ; preds = %9, %12, %7
  %.0 = phi ptr [ null, %7 ], [ %14, %12 ], [ null, %9 ]
  ret ptr %.0
}

; Function Attrs: mustprogress nofree nosync nounwind willreturn memory(none)
declare ptr @__errno_location() local_unnamed_addr #1

; Function Attrs: mustprogress nounwind willreturn allockind("realloc") allocsize(1) memory(argmem: readwrite, inaccessiblemem: readwrite)
declare noalias noundef ptr @realloc(ptr allocptr nocapture noundef, i64 noundef) local_unnamed_addr #2

; Function Attrs: nocallback nofree nosync nounwind speculatable willreturn memory(none)
declare { i64, i1 } @llvm.umul.with.overflow.i64(i64, i64) #3


!llvm.module.flags = !{!0, !1, !2, !3, !4, !5}

!0 = !{i32 7, !"Dwarf Version", i32 5}
!1 = !{i32 2, !"Debug Info Version", i32 3}
!2 = !{i32 1, !"wchar_size", i32 4}
!3 = !{i32 8, !"PIC Level", i32 2}
!4 = !{i32 7, !"uwtable", i32 2}
!5 = !{i32 7, !"frame-pointer", i32 2}
